target datalayout = "e-m:e-p270:32:32-p271:32:32-p272:64:64-i64:64-i128:128-f80:128-n8:16:32:64-S128"
target triple = "x86_64-unknown-linux-gnu"

%"class.icu_75::TimeZoneRule" = type { %"class.icu_75::UObject", %"class.icu_75::UnicodeString", i32, i32 }
%"class.icu_75::UObject" = type { ptr }
%"class.icu_75::UnicodeString" = type { %"class.icu_75::Replaceable", %"union.icu_75::UnicodeString::StackBufferOrFields" }
%"class.icu_75::Replaceable" = type { %"class.icu_75::UObject" }
%"union.icu_75::UnicodeString::StackBufferOrFields" = type { %struct.anon.0, [32 x i8] }
%struct.anon.0 = type { i16, i32, i32, ptr }
%"class.icu_75::AnnualTimeZoneRule" = type { %"class.icu_75::TimeZoneRule", ptr, i32, i32 }

@_ZN6icu_755Grego12MONTH_LENGTHE = external constant [24 x i8], align 16

; Function Attrs: mustprogress nounwind uwtable
define linkonce_odr noundef signext i8 @_ZN6icu_755Grego10isLeapYearEi(i32 noundef %year) #2 comdat align 2 {
entry:
  %year.addr = alloca i32, align 4
  store i32 %year, ptr %year.addr, align 4
  %0 = load i32, ptr %year.addr, align 4
  %and = and i32 %0, 3
  %cmp = icmp eq i32 %and, 0
  br i1 %cmp, label %land.rhs, label %land.end

land.rhs:                                         ; preds = %entry
  %1 = load i32, ptr %year.addr, align 4
  %rem = srem i32 %1, 100
  %cmp1 = icmp ne i32 %rem, 0
  br i1 %cmp1, label %lor.end, label %lor.rhs

lor.rhs:                                          ; preds = %land.rhs
  %2 = load i32, ptr %year.addr, align 4
  %rem2 = srem i32 %2, 400
  %cmp3 = icmp eq i32 %rem2, 0
  br label %lor.end

lor.end:                                          ; preds = %lor.rhs, %land.rhs
  %3 = phi i1 [ true, %land.rhs ], [ %cmp3, %lor.rhs ]
  br label %land.end

land.end:                                         ; preds = %lor.end, %entry
  %4 = phi i1 [ false, %entry ], [ %3, %lor.end ]
  %conv = zext i1 %4 to i8
  ret i8 %conv
}

; Function Attrs: mustprogress uwtable
define linkonce_odr noundef signext i8 @_ZN6icu_755Grego11monthLengthEii(i32 noundef %year, i32 noundef %month) #0 comdat align 2 {
entry:
  %year.addr = alloca i32, align 4
  %month.addr = alloca i32, align 4
  store i32 %year, ptr %year.addr, align 4
  store i32 %month, ptr %month.addr, align 4
  %0 = load i32, ptr %month.addr, align 4
  %1 = load i32, ptr %year.addr, align 4
  %call = call noundef signext i8 @_ZN6icu_755Grego10isLeapYearEi(i32 noundef %1)
  %tobool = icmp ne i8 %call, 0
  %cond = select i1 %tobool, i32 12, i32 0
  %add = add nsw i32 %0, %cond
  %idxprom = sext i32 %add to i64
  %arrayidx = getelementptr inbounds [24 x i8], ptr @_ZN6icu_755Grego12MONTH_LENGTHE, i64 0, i64 %idxprom
  %2 = load i8, ptr %arrayidx, align 1
  ret i8 %2
}

; Function Attrs: mustprogress uwtable
define noundef signext i8 @_ZNK6icu_7518AnnualTimeZoneRule14getStartInYearEiiiRd(ptr noundef nonnull align 8 dereferenceable(96) %this, i32 noundef %year, i32 noundef %prevRawOffset, i32 noundef %prevDSTSavings, ptr noundef nonnull align 8 dereferenceable(8) %result) #0 align 2 {
entry:
  %retval = alloca i8, align 1
  %this.addr = alloca ptr, align 8
  %year.addr = alloca i32, align 4
  %prevRawOffset.addr = alloca i32, align 4
  %prevDSTSavings.addr = alloca i32, align 4
  %result.addr = alloca ptr, align 8
  %ruleDay = alloca double, align 8
  %type = alloca i32, align 4
  %after = alloca i8, align 1
  %weeks = alloca i32, align 4
  %month = alloca i32, align 4
  %dom = alloca i32, align 4
  %dow = alloca i32, align 4
  %delta = alloca i32, align 4
  store ptr %this, ptr %this.addr, align 8
  store i32 %year, ptr %year.addr, align 4
  store i32 %prevRawOffset, ptr %prevRawOffset.addr, align 4
  store i32 %prevDSTSavings, ptr %prevDSTSavings.addr, align 4
  store ptr %result, ptr %result.addr, align 8
  %this1 = load ptr, ptr %this.addr, align 8
  %0 = load i32, ptr %year.addr, align 4
  %fStartYear = getelementptr inbounds %"class.icu_75::AnnualTimeZoneRule", ptr %this1, i32 0, i32 2
  %1 = load i32, ptr %fStartYear, align 8
  %cmp = icmp slt i32 %0, %1
  br i1 %cmp, label %if.then, label %lor.lhs.false

lor.lhs.false:                                    ; preds = %entry
  %2 = load i32, ptr %year.addr, align 4
  %fEndYear = getelementptr inbounds %"class.icu_75::AnnualTimeZoneRule", ptr %this1, i32 0, i32 3
  %3 = load i32, ptr %fEndYear, align 4
  %cmp2 = icmp sgt i32 %2, %3
  br i1 %cmp2, label %if.then, label %if.end

if.then:                                          ; preds = %lor.lhs.false, %entry
  store i8 0, ptr %retval, align 1
  br label %return

if.end:                                           ; preds = %lor.lhs.false
  %fDateTimeRule = getelementptr inbounds %"class.icu_75::AnnualTimeZoneRule", ptr %this1, i32 0, i32 1
  %4 = load ptr, ptr %fDateTimeRule, align 8
  %call = call noundef i32 @_ZNK6icu_7512DateTimeRule15getDateRuleTypeEv(ptr noundef nonnull align 8 dereferenceable(36) %4)
  store i32 %call, ptr %type, align 4
  %5 = load i32, ptr %type, align 4
  %cmp3 = icmp eq i32 %5, 0
  br i1 %cmp3, label %if.then4, label %if.else

if.then4:                                         ; preds = %if.end
  %6 = load i32, ptr %year.addr, align 4
  %fDateTimeRule5 = getelementptr inbounds %"class.icu_75::AnnualTimeZoneRule", ptr %this1, i32 0, i32 1
  %7 = load ptr, ptr %fDateTimeRule5, align 8
  %call6 = call noundef i32 @_ZNK6icu_7512DateTimeRule12getRuleMonthEv(ptr noundef nonnull align 8 dereferenceable(36) %7)
  %fDateTimeRule7 = getelementptr inbounds %"class.icu_75::AnnualTimeZoneRule", ptr %this1, i32 0, i32 1
  %8 = load ptr, ptr %fDateTimeRule7, align 8
  %call8 = call noundef i32 @_ZNK6icu_7512DateTimeRule17getRuleDayOfMonthEv(ptr noundef nonnull align 8 dereferenceable(36) %8)
  %call9 = call noundef double @_ZN6icu_755Grego11fieldsToDayEiii(i32 noundef %6, i32 noundef %call6, i32 noundef %call8)
  store double %call9, ptr %ruleDay, align 8
  br label %if.end67

if.else:                                          ; preds = %if.end
  store i8 1, ptr %after, align 1
  %9 = load i32, ptr %type, align 4
  %cmp10 = icmp eq i32 %9, 1
  br i1 %cmp10, label %if.then11, label %if.else32

if.then11:                                        ; preds = %if.else
  %fDateTimeRule12 = getelementptr inbounds %"class.icu_75::AnnualTimeZoneRule", ptr %this1, i32 0, i32 1
  %10 = load ptr, ptr %fDateTimeRule12, align 8
  %call13 = call noundef i32 @_ZNK6icu_7512DateTimeRule18getRuleWeekInMonthEv(ptr noundef nonnull align 8 dereferenceable(36) %10)
  store i32 %call13, ptr %weeks, align 4
  %11 = load i32, ptr %weeks, align 4
  %cmp14 = icmp sgt i32 %11, 0
  br i1 %cmp14, label %if.then15, label %if.else19

if.then15:                                        ; preds = %if.then11
  %12 = load i32, ptr %year.addr, align 4
  %fDateTimeRule16 = getelementptr inbounds %"class.icu_75::AnnualTimeZoneRule", ptr %this1, i32 0, i32 1
  %13 = load ptr, ptr %fDateTimeRule16, align 8
  %call17 = call noundef i32 @_ZNK6icu_7512DateTimeRule12getRuleMonthEv(ptr noundef nonnull align 8 dereferenceable(36) %13)
  %call18 = call noundef double @_ZN6icu_755Grego11fieldsToDayEiii(i32 noundef %12, i32 noundef %call17, i32 noundef 1)
  store double %call18, ptr %ruleDay, align 8
  %14 = load i32, ptr %weeks, align 4
  %sub = sub nsw i32 %14, 1
  %mul = mul nsw i32 7, %sub
  %conv = sitofp i32 %mul to double
  %15 = load double, ptr %ruleDay, align 8
  %add = fadd double %15, %conv
  store double %add, ptr %ruleDay, align 8
  br label %if.end31

if.else19:                                        ; preds = %if.then11
  store i8 0, ptr %after, align 1
  %16 = load i32, ptr %year.addr, align 4
  %fDateTimeRule20 = getelementptr inbounds %"class.icu_75::AnnualTimeZoneRule", ptr %this1, i32 0, i32 1
  %17 = load ptr, ptr %fDateTimeRule20, align 8
  %call21 = call noundef i32 @_ZNK6icu_7512DateTimeRule12getRuleMonthEv(ptr noundef nonnull align 8 dereferenceable(36) %17)
  %18 = load i32, ptr %year.addr, align 4
  %fDateTimeRule22 = getelementptr inbounds %"class.icu_75::AnnualTimeZoneRule", ptr %this1, i32 0, i32 1
  %19 = load ptr, ptr %fDateTimeRule22, align 8
  %call23 = call noundef i32 @_ZNK6icu_7512DateTimeRule12getRuleMonthEv(ptr noundef nonnull align 8 dereferenceable(36) %19)
  %call24 = call noundef signext i8 @_ZN6icu_755Grego11monthLengthEii(i32 noundef %18, i32 noundef %call23)
  %conv25 = sext i8 %call24 to i32
  %call26 = call noundef double @_ZN6icu_755Grego11fieldsToDayEiii(i32 noundef %16, i32 noundef %call21, i32 noundef %conv25)
  store double %call26, ptr %ruleDay, align 8
  %20 = load i32, ptr %weeks, align 4
  %add27 = add nsw i32 %20, 1
  %mul28 = mul nsw i32 7, %add27
  %conv29 = sitofp i32 %mul28 to double
  %21 = load double, ptr %ruleDay, align 8
  %add30 = fadd double %21, %conv29
  store double %add30, ptr %ruleDay, align 8
  br label %if.end31

if.end31:                                         ; preds = %if.else19, %if.then15
  br label %if.end47

if.else32:                                        ; preds = %if.else
  %fDateTimeRule33 = getelementptr inbounds %"class.icu_75::AnnualTimeZoneRule", ptr %this1, i32 0, i32 1
  %22 = load ptr, ptr %fDateTimeRule33, align 8
  %call34 = call noundef i32 @_ZNK6icu_7512DateTimeRule12getRuleMonthEv(ptr noundef nonnull align 8 dereferenceable(36) %22)
  store i32 %call34, ptr %month, align 4
  %fDateTimeRule35 = getelementptr inbounds %"class.icu_75::AnnualTimeZoneRule", ptr %this1, i32 0, i32 1
  %23 = load ptr, ptr %fDateTimeRule35, align 8
  %call36 = call noundef i32 @_ZNK6icu_7512DateTimeRule17getRuleDayOfMonthEv(ptr noundef nonnull align 8 dereferenceable(36) %23)
  store i32 %call36, ptr %dom, align 4
  %24 = load i32, ptr %type, align 4
  %cmp37 = icmp eq i32 %24, 3
  br i1 %cmp37, label %if.then38, label %if.end45

if.then38:                                        ; preds = %if.else32
  store i8 0, ptr %after, align 1
  %25 = load i32, ptr %month, align 4
  %cmp39 = icmp eq i32 %25, 1
  br i1 %cmp39, label %land.lhs.true, label %if.end44

land.lhs.true:                                    ; preds = %if.then38
  %26 = load i32, ptr %dom, align 4
  %cmp40 = icmp eq i32 %26, 29
  br i1 %cmp40, label %land.lhs.true41, label %if.end44

land.lhs.true41:                                  ; preds = %land.lhs.true
  %27 = load i32, ptr %year.addr, align 4
  %call42 = call noundef signext i8 @_ZN6icu_755Grego10isLeapYearEi(i32 noundef %27)
  %tobool = icmp ne i8 %call42, 0
  br i1 %tobool, label %if.end44, label %if.then43

if.then43:                                        ; preds = %land.lhs.true41
  %28 = load i32, ptr %dom, align 4
  %dec = add nsw i32 %28, -1
  store i32 %dec, ptr %dom, align 4
  br label %if.end44

if.end44:                                         ; preds = %if.then43, %land.lhs.true41, %land.lhs.true, %if.then38
  br label %if.end45

if.end45:                                         ; preds = %if.end44, %if.else32
  %29 = load i32, ptr %year.addr, align 4
  %30 = load i32, ptr %month, align 4
  %31 = load i32, ptr %dom, align 4
  %call46 = call noundef double @_ZN6icu_755Grego11fieldsToDayEiii(i32 noundef %29, i32 noundef %30, i32 noundef %31)
  store double %call46, ptr %ruleDay, align 8
  br label %if.end47

if.end47:                                         ; preds = %if.end45, %if.end31
  %32 = load double, ptr %ruleDay, align 8
  %conv48 = fptosi double %32 to i32
  %call49 = call noundef i32 @_ZN6icu_755Grego9dayOfWeekEi(i32 noundef %conv48)
  store i32 %call49, ptr %dow, align 4
  %fDateTimeRule50 = getelementptr inbounds %"class.icu_75::AnnualTimeZoneRule", ptr %this1, i32 0, i32 1
  %33 = load ptr, ptr %fDateTimeRule50, align 8
  %call51 = call noundef i32 @_ZNK6icu_7512DateTimeRule16getRuleDayOfWeekEv(ptr noundef nonnull align 8 dereferenceable(36) %33)
  %34 = load i32, ptr %dow, align 4
  %sub52 = sub nsw i32 %call51, %34
  store i32 %sub52, ptr %delta, align 4
  %35 = load i8, ptr %after, align 1
  %tobool53 = icmp ne i8 %35, 0
  br i1 %tobool53, label %if.then54, label %if.else57

if.then54:                                        ; preds = %if.end47
  %36 = load i32, ptr %delta, align 4
  %cmp55 = icmp slt i32 %36, 0
  br i1 %cmp55, label %cond.true, label %cond.false

cond.true:                                        ; preds = %if.then54
  %37 = load i32, ptr %delta, align 4
  %add56 = add nsw i32 %37, 7
  br label %cond.end

cond.false:                                       ; preds = %if.then54
  %38 = load i32, ptr %delta, align 4
  br label %cond.end

cond.end:                                         ; preds = %cond.false, %cond.true
  %cond = phi i32 [ %add56, %cond.true ], [ %38, %cond.false ]
  store i32 %cond, ptr %delta, align 4
  br label %if.end64

if.else57:                                        ; preds = %if.end47
  %39 = load i32, ptr %delta, align 4
  %cmp58 = icmp sgt i32 %39, 0
  br i1 %cmp58, label %cond.true59, label %cond.false61

cond.true59:                                      ; preds = %if.else57
  %40 = load i32, ptr %delta, align 4
  %sub60 = sub nsw i32 %40, 7
  br label %cond.end62

cond.false61:                                     ; preds = %if.else57
  %41 = load i32, ptr %delta, align 4
  br label %cond.end62

cond.end62:                                       ; preds = %cond.false61, %cond.true59
  %cond63 = phi i32 [ %sub60, %cond.true59 ], [ %41, %cond.false61 ]
  store i32 %cond63, ptr %delta, align 4
  br label %if.end64

if.end64:                                         ; preds = %cond.end62, %cond.end
  %42 = load i32, ptr %delta, align 4
  %conv65 = sitofp i32 %42 to double
  %43 = load double, ptr %ruleDay, align 8
  %add66 = fadd double %43, %conv65
  store double %add66, ptr %ruleDay, align 8
  br label %if.end67

if.end67:                                         ; preds = %if.end64, %if.then4
  %44 = load double, ptr %ruleDay, align 8
  %fDateTimeRule69 = getelementptr inbounds %"class.icu_75::AnnualTimeZoneRule", ptr %this1, i32 0, i32 1
  %45 = load ptr, ptr %fDateTimeRule69, align 8
  %call70 = call noundef i32 @_ZNK6icu_7512DateTimeRule18getRuleMillisInDayEv(ptr noundef nonnull align 8 dereferenceable(36) %45)
  %conv71 = sitofp i32 %call70 to double
  %46 = call double @llvm.fmuladd.f64(double %44, double 8.640000e+07, double %conv71)
  %47 = load ptr, ptr %result.addr, align 8
  store double %46, ptr %47, align 8
  %fDateTimeRule72 = getelementptr inbounds %"class.icu_75::AnnualTimeZoneRule", ptr %this1, i32 0, i32 1
  %48 = load ptr, ptr %fDateTimeRule72, align 8
  %call73 = call noundef i32 @_ZNK6icu_7512DateTimeRule15getTimeRuleTypeEv(ptr noundef nonnull align 8 dereferenceable(36) %48)
  %cmp74 = icmp ne i32 %call73, 2
  br i1 %cmp74, label %if.then75, label %if.end78

if.then75:                                        ; preds = %if.end67
  %49 = load i32, ptr %prevRawOffset.addr, align 4
  %conv76 = sitofp i32 %49 to double
  %50 = load ptr, ptr %result.addr, align 8
  %51 = load double, ptr %50, align 8
  %sub77 = fsub double %51, %conv76
  store double %sub77, ptr %50, align 8
  br label %if.end78

if.end78:                                         ; preds = %if.then75, %if.end67
  %fDateTimeRule79 = getelementptr inbounds %"class.icu_75::AnnualTimeZoneRule", ptr %this1, i32 0, i32 1
  %52 = load ptr, ptr %fDateTimeRule79, align 8
  %call80 = call noundef i32 @_ZNK6icu_7512DateTimeRule15getTimeRuleTypeEv(ptr noundef nonnull align 8 dereferenceable(36) %52)
  %cmp81 = icmp eq i32 %call80, 0
  br i1 %cmp81, label %if.then82, label %if.end85

if.then82:                                        ; preds = %if.end78
  %53 = load i32, ptr %prevDSTSavings.addr, align 4
  %conv83 = sitofp i32 %53 to double
  %54 = load ptr, ptr %result.addr, align 8
  %55 = load double, ptr %54, align 8
  %sub84 = fsub double %55, %conv83
  store double %sub84, ptr %54, align 8
  br label %if.end85

if.end85:                                         ; preds = %if.then82, %if.end78
  store i8 1, ptr %retval, align 1
  br label %return

return:                                           ; preds = %if.end85, %if.then
  %56 = load i8, ptr %retval, align 1
  ret i8 %56
}