; Function Attrs: mustprogress uwtable
define noundef signext i8 @_ZNK6icu_7518AnnualTimeZoneRule14getStartInYearEiiiRd(ptr nocapture noundef nonnull readonly align 8 dereferenceable(96) %this, i32 noundef %year, i32 noundef %prevRawOffset, i32 noundef %prevDSTSavings, ptr nocapture noundef nonnull align 8 dereferenceable(8) %result) local_unnamed_addr #0 align 2 {
entry:
  %fStartYear = getelementptr inbounds i8, ptr %this, i64 88
  %0 = load i32, ptr %fStartYear, align 8
  %cmp = icmp sgt i32 %0, %year
  %fEndYear = getelementptr inbounds i8, ptr %this, i64 92
  %1 = load i32, ptr %fEndYear, align 4
  %cmp2 = icmp slt i32 %1, %year
  %or.cond27 = select i1 %cmp, i1 true, i1 %cmp2
  br i1 %or.cond27, label %return, label %if.end

if.end:                                           ; preds = %entry
  %fDateTimeRule = getelementptr inbounds i8, ptr %this, i64 80
  %2 = load ptr, ptr %fDateTimeRule, align 8
  %call = tail call noundef i32 @_ZNK6icu_7512DateTimeRule15getDateRuleTypeEv(ptr noundef nonnull align 8 dereferenceable(36) %2)
  %3 = load ptr, ptr %fDateTimeRule, align 8
  switch i32 %call, label %if.else32 [
    i32 0, label %if.then4
    i32 1, label %if.then11
  ]

if.then4:                                         ; preds = %if.end
  %call6 = tail call noundef i32 @_ZNK6icu_7512DateTimeRule12getRuleMonthEv(ptr noundef nonnull align 8 dereferenceable(36) %3)
  %4 = load ptr, ptr %fDateTimeRule, align 8
  %call8 = tail call noundef i32 @_ZNK6icu_7512DateTimeRule17getRuleDayOfMonthEv(ptr noundef nonnull align 8 dereferenceable(36) %4)
  %call9 = tail call noundef double @_ZN6icu_755Grego11fieldsToDayEiii(i32 noundef %year, i32 noundef %call6, i32 noundef %call8)
  br label %if.end67

if.then11:                                        ; preds = %if.end
  %call13 = tail call noundef i32 @_ZNK6icu_7512DateTimeRule18getRuleWeekInMonthEv(ptr noundef nonnull align 8 dereferenceable(36) %3)
  %cmp14 = icmp sgt i32 %call13, 0
  %5 = load ptr, ptr %fDateTimeRule, align 8
  %call17 = tail call noundef i32 @_ZNK6icu_7512DateTimeRule12getRuleMonthEv(ptr noundef nonnull align 8 dereferenceable(36) %5)
  br i1 %cmp14, label %if.then15, label %if.else19

if.then15:                                        ; preds = %if.then11
  %call18 = tail call noundef double @_ZN6icu_755Grego11fieldsToDayEiii(i32 noundef %year, i32 noundef %call17, i32 noundef 1)
  %6 = mul i32 %call13, 7
  %mul = add i32 %6, -7
  %conv = sitofp i32 %mul to double
  %add = fadd double %call18, %conv
  br label %if.end47

if.else19:                                        ; preds = %if.then11
  %7 = load ptr, ptr %fDateTimeRule, align 8
  %call23 = tail call noundef i32 @_ZNK6icu_7512DateTimeRule12getRuleMonthEv(ptr noundef nonnull align 8 dereferenceable(36) %7)
  %and.i.i = and i32 %year, 3
  %cmp.i.i = icmp eq i32 %and.i.i, 0
  br i1 %cmp.i.i, label %land.rhs.i.i, label %_ZN6icu_755Grego10isLeapYearEi.exit.thread.i

land.rhs.i.i:                                     ; preds = %if.else19
  %rem.i.i = srem i32 %year, 100
  %cmp1.not.i.i = icmp ne i32 %rem.i.i, 0
  %rem2.i.i = srem i32 %year, 400
  %cmp3.i.not.i = icmp eq i32 %rem2.i.i, 0
  %or.cond.i = or i1 %cmp1.not.i.i, %cmp3.i.not.i
  br i1 %or.cond.i, label %_ZN6icu_755Grego11monthLengthEii.exit, label %_ZN6icu_755Grego10isLeapYearEi.exit.thread.i

_ZN6icu_755Grego10isLeapYearEi.exit.thread.i:     ; preds = %land.rhs.i.i, %if.else19
  br label %_ZN6icu_755Grego11monthLengthEii.exit

_ZN6icu_755Grego11monthLengthEii.exit:            ; preds = %land.rhs.i.i, %_ZN6icu_755Grego10isLeapYearEi.exit.thread.i
  %8 = phi i32 [ 0, %_ZN6icu_755Grego10isLeapYearEi.exit.thread.i ], [ 12, %land.rhs.i.i ]
  %add.i = add nsw i32 %8, %call23
  %idxprom.i = sext i32 %add.i to i64
  %arrayidx.i = getelementptr inbounds [24 x i8], ptr @_ZN6icu_755Grego12MONTH_LENGTHE, i64 0, i64 %idxprom.i
  %9 = load i8, ptr %arrayidx.i, align 1
  %conv25 = sext i8 %9 to i32
  %call26 = tail call noundef double @_ZN6icu_755Grego11fieldsToDayEiii(i32 noundef %year, i32 noundef %call17, i32 noundef %conv25)
  %10 = mul i32 %call13, 7
  %mul28 = add i32 %10, 7
  %conv29 = sitofp i32 %mul28 to double
  %add30 = fadd double %call26, %conv29
  br label %if.end47

if.else32:                                        ; preds = %if.end
  %call34 = tail call noundef i32 @_ZNK6icu_7512DateTimeRule12getRuleMonthEv(ptr noundef nonnull align 8 dereferenceable(36) %3)
  %11 = load ptr, ptr %fDateTimeRule, align 8
  %call36 = tail call noundef i32 @_ZNK6icu_7512DateTimeRule17getRuleDayOfMonthEv(ptr noundef nonnull align 8 dereferenceable(36) %11)
  %cmp37 = icmp eq i32 %call, 3
  br i1 %cmp37, label %if.then38, label %if.end45

if.then38:                                        ; preds = %if.else32
  %cmp39 = icmp eq i32 %call34, 1
  %cmp40 = icmp eq i32 %call36, 29
  %or.cond = and i1 %cmp39, %cmp40
  br i1 %or.cond, label %land.lhs.true41, label %if.end45

land.lhs.true41:                                  ; preds = %if.then38
  %and.i = and i32 %year, 3
  %cmp.i = icmp eq i32 %and.i, 0
  br i1 %cmp.i, label %land.rhs.i, label %_ZN6icu_755Grego10isLeapYearEi.exit.thread

land.rhs.i:                                       ; preds = %land.lhs.true41
  %rem.i = srem i32 %year, 100
  %cmp1.not.i = icmp ne i32 %rem.i, 0
  %rem2.i = srem i32 %year, 400
  %cmp3.i.not = icmp eq i32 %rem2.i, 0
  %or.cond33 = or i1 %cmp1.not.i, %cmp3.i.not
  br i1 %or.cond33, label %if.end45, label %_ZN6icu_755Grego10isLeapYearEi.exit.thread

_ZN6icu_755Grego10isLeapYearEi.exit.thread:       ; preds = %land.rhs.i, %land.lhs.true41
  br label %if.end45

if.end45:                                         ; preds = %land.rhs.i, %_ZN6icu_755Grego10isLeapYearEi.exit.thread, %if.then38, %if.else32
  %dom.0 = phi i32 [ %call36, %if.then38 ], [ %call36, %if.else32 ], [ 28, %_ZN6icu_755Grego10isLeapYearEi.exit.thread ], [ 29, %land.rhs.i ]
  %call46 = tail call noundef double @_ZN6icu_755Grego11fieldsToDayEiii(i32 noundef %year, i32 noundef %call34, i32 noundef %dom.0)
  br label %if.end47

if.end47:                                         ; preds = %if.then15, %_ZN6icu_755Grego11monthLengthEii.exit, %if.end45
  %after.1 = phi i1 [ false, %if.then15 ], [ true, %_ZN6icu_755Grego11monthLengthEii.exit ], [ %cmp37, %if.end45 ]
  %ruleDay.0 = phi double [ %add, %if.then15 ], [ %add30, %_ZN6icu_755Grego11monthLengthEii.exit ], [ %call46, %if.end45 ]
  %conv48 = fptosi double %ruleDay.0 to i32
  %call49 = tail call noundef i32 @_ZN6icu_755Grego9dayOfWeekEi(i32 noundef %conv48)
  %12 = load ptr, ptr %fDateTimeRule, align 8
  %call51 = tail call noundef i32 @_ZNK6icu_7512DateTimeRule16getRuleDayOfWeekEv(ptr noundef nonnull align 8 dereferenceable(36) %12)
  %sub52 = sub nsw i32 %call51, %call49
  %cmp58 = icmp sgt i32 %sub52, 0
  %cmp55 = icmp slt i32 %sub52, 0
  %.sink = select i1 %after.1, i32 -7, i32 7
  %cmp58.sink = select i1 %after.1, i1 %cmp58, i1 %cmp55
  %sub60 = select i1 %cmp58.sink, i32 %.sink, i32 0
  %cond63 = add nsw i32 %sub52, %sub60
  %conv65 = sitofp i32 %cond63 to double
  %add66 = fadd double %ruleDay.0, %conv65
  br label %if.end67

if.end67:                                         ; preds = %if.end47, %if.then4
  %ruleDay.1 = phi double [ %call9, %if.then4 ], [ %add66, %if.end47 ]
  %13 = load ptr, ptr %fDateTimeRule, align 8
  %call70 = tail call noundef i32 @_ZNK6icu_7512DateTimeRule18getRuleMillisInDayEv(ptr noundef nonnull align 8 dereferenceable(36) %13)
  %conv71 = sitofp i32 %call70 to double
  %14 = tail call double @llvm.fmuladd.f64(double %ruleDay.1, double 8.640000e+07, double %conv71)
  store double %14, ptr %result, align 8
  %15 = load ptr, ptr %fDateTimeRule, align 8
  %call73 = tail call noundef i32 @_ZNK6icu_7512DateTimeRule15getTimeRuleTypeEv(ptr noundef nonnull align 8 dereferenceable(36) %15)
  %cmp74.not = icmp eq i32 %call73, 2
  br i1 %cmp74.not, label %if.end78, label %if.then75

if.then75:                                        ; preds = %if.end67
  %conv76 = sitofp i32 %prevRawOffset to double
  %16 = load double, ptr %result, align 8
  %sub77 = fsub double %16, %conv76
  store double %sub77, ptr %result, align 8
  br label %if.end78

if.end78:                                         ; preds = %if.then75, %if.end67
  %17 = load ptr, ptr %fDateTimeRule, align 8
  %call80 = tail call noundef i32 @_ZNK6icu_7512DateTimeRule15getTimeRuleTypeEv(ptr noundef nonnull align 8 dereferenceable(36) %17)
  %cmp81 = icmp eq i32 %call80, 0
  br i1 %cmp81, label %if.then82, label %return

if.then82:                                        ; preds = %if.end78
  %conv83 = sitofp i32 %prevDSTSavings to double
  %18 = load double, ptr %result, align 8
  %sub84 = fsub double %18, %conv83
  store double %sub84, ptr %result, align 8
  br label %return

return:                                           ; preds = %if.end78, %if.then82, %entry
  %retval.0 = phi i8 [ 0, %entry ], [ 1, %if.then82 ], [ 1, %if.end78 ]
  ret i8 %retval.0
}